SF:D:\github\rs\csd-rs\src\csd.rs
FN:65,_RNvMNtCs7xJN8od9Z83_3csd3csdNtB2_10CsdBuilder13max_non_zeros
FN:70,_RNvMNtCs7xJN8od9Z83_3csd3csdNtB2_10CsdBuilder17rounding_strategy
FN:52,_RNvMNtCs7xJN8od9Z83_3csd3csdNtB2_10CsdBuilder3new
FN:78,_RNvMNtCs7xJN8od9Z83_3csd3csdNtB2_10CsdBuilder5build
FN:60,_RNvMNtCs7xJN8od9Z83_3csd3csdNtB2_10CsdBuilder6places
FN:683,_RNvNtCs7xJN8od9Z83_3csd3csd10to_decimal
FN:546,_RNvNtCs7xJN8od9Z83_3csd3csd12to_decimal_i
FN:901,_RNvNtCs7xJN8od9Z83_3csd3csd14to_csdnnz_safe
FN:205,_RNvNtCs7xJN8od9Z83_3csd3csd15is_power_of_two
FN:687,_RNvNtCs7xJN8od9Z83_3csd3csd15to_decimal_safe
FN:516,_RNvNtCs7xJN8od9Z83_3csd3csd17to_decimal_i_safe
FN:720,_RNvNtCs7xJN8od9Z83_3csd3csd17to_decimal_result
FN:753,_RNvNtCs7xJN8od9Z83_3csd3csd19to_decimal_i_result
FN:227,_RNvNtCs7xJN8od9Z83_3csd3csd19validate_csd_format
FN:210,_RNvNtCs7xJN8od9Z83_3csd3csd21count_non_zero_digits
FN:596,_RNvNtCs7xJN8od9Z83_3csd3csd21to_decimal_fractional
FN:771,_RNvNtCs7xJN8od9Z83_3csd3csd21to_decimal_i64_result
FN:789,_RNvNtCs7xJN8od9Z83_3csd3csd22to_decimal_i128_result
FN:195,_RNvNtCs7xJN8od9Z83_3csd3csd23highest_power_of_two_inB3_
FN:568,_RNvNtCs7xJN8od9Z83_3csd3csd24to_decimal_integral_safe
FN:613,_RNvNtCs7xJN8od9Z83_3csd3csd26to_decimal_fractional_safe
FN:310,_RNvNtCs7xJN8od9Z83_3csd3csd6to_csd
FN:434,_RNvNtCs7xJN8od9Z83_3csd3csd8to_csd_i
FN:859,_RNvNtCs7xJN8od9Z83_3csd3csd9to_csdnnz
FN:117,_RNvXs_NtCs7xJN8od9Z83_3csd3csdNtB4_8CsdErrorNtNtCs6joXTnudZij_4core3fmt7Display3fmt
FN:1430,_RNvNtNtCs7xJN8od9Z83_3csd3csd5tests10to_csd_i64
FN:1462,_RNvNtNtCs7xJN8od9Z83_3csd3csd5tests11to_csd_i128
FN:1494,_RNvNtNtCs7xJN8od9Z83_3csd3csd5tests11to_csdnnz_i
FN:1500,_RNvNtNtCs7xJN8od9Z83_3csd3csd5tests13to_csdnnz_i64
FN:1506,_RNvNtNtCs7xJN8od9Z83_3csd3csd5tests14to_csdnnz_i128
FN:1391,_RNvNtNtCs7xJN8od9Z83_3csd3csd5tests14to_decimal_i64
FN:1410,_RNvNtNtCs7xJN8od9Z83_3csd3csd5tests15to_decimal_i128
FN:1100,_RNvNtNtCs7xJN8od9Z83_3csd3csd5testss_11test_to_csd
FN:1133,_RNvNtNtCs7xJN8od9Z83_3csd3csd5testss_14test_to_csdnnz
FN:1304,_RNvNtNtCs7xJN8od9Z83_3csd3csd5testss_15test_to_csd_i64
FN:1345,_RNvNtNtCs7xJN8od9Z83_3csd3csd5testss_16test_to_csd_i128
FN:1152,_RNvNtNtCs7xJN8od9Z83_3csd3csd5testss_16test_to_csdnnz_i
FN:1121,_RNvNtNtCs7xJN8od9Z83_3csd3csd5testss_17test_to_decimal_i
FN:1321,_RNvNtNtCs7xJN8od9Z83_3csd3csd5testss_18test_to_csdnnz_i64
FN:1355,_RNvNtNtCs7xJN8od9Z83_3csd3csd5testss_19test_to_csdnnz_i128
FN:1797,_RNvNtNtCs7xJN8od9Z83_3csd3csd5testss_19test_to_csdnnz_safe
FN:1314,_RNvNtNtCs7xJN8od9Z83_3csd3csd5testss_19test_to_decimal_i64
FN:1512,_RNvNtNtCs7xJN8od9Z83_3csd3csd5testss_20test_csd_builder_new
FN:1658,_RNvNtNtCs7xJN8od9Z83_3csd3csd5testss_20test_is_power_of_two
FN:1379,_RNvNtNtCs7xJN8od9Z83_3csd3csd5testss_22test_to_decimal_result
FN:1520,_RNvNtNtCs7xJN8od9Z83_3csd3csd5testss_23test_csd_builder_places
FN:1749,_RNvNtNtCs7xJN8od9Z83_3csd3csd5testss_24test_to_decimal_i_result
FN:1110,_RNvNtNtCs7xJN8od9Z83_3csd3csd5testss_24test_to_decimal_invalid1
FN:1116,_RNvNtNtCs7xJN8od9Z83_3csd3csd5testss_24test_to_decimal_invalid2
FN:1693,_RNvNtNtCs7xJN8od9Z83_3csd3csd5testss_24test_validate_csd_format
FN:1128,_RNvNtNtCs7xJN8od9Z83_3csd3csd5testss_25test_to_decimal_i_invalid
FN:1679,_RNvNtNtCs7xJN8od9Z83_3csd3csd5testss_26test_count_non_zero_digits
FN:1725,_RNvNtNtCs7xJN8od9Z83_3csd3csd5testss_26test_to_decimal_fractional
FN:1767,_RNvNtNtCs7xJN8od9Z83_3csd3csd5testss_26test_to_decimal_i64_result
FN:1821,_RNvNtNtCs7xJN8od9Z83_3csd3csd5testss_27test_to_csdnnz_i64_explicit
FN:1782,_RNvNtNtCs7xJN8od9Z83_3csd3csd5testss_27test_to_decimal_i128_result
FN:1292,_RNvNtNtCs7xJN8od9Z83_3csd3csd5testss_28test_highest_power_of_two_in
FN:1848,_RNvNtNtCs7xJN8od9Z83_3csd3csd5testss_28test_to_csdnnz_i128_explicit
FN:1544,_RNvNtNtCs7xJN8od9Z83_3csd3csd5testss_29test_csd_builder_build_simple
FN:1530,_RNvNtNtCs7xJN8od9Z83_3csd3csd5testss_30test_csd_builder_max_non_zeros
FN:1621,_RNvNtNtCs7xJN8od9Z83_3csd3csd5testss_31test_csd_error_display_overflow
FN:1564,_RNvNtNtCs7xJN8od9Z83_3csd3csd5testss_33test_csd_builder_build_zero_value
FN:1536,_RNvNtNtCs7xJN8od9Z83_3csd3csd5testss_34test_csd_builder_rounding_strategy
FN:1651,_RNvNtNtCs7xJN8od9Z83_3csd3csd5testss_35test_csd_error_display_empty_string
FN:1885,_RNvNtNtCs7xJN8od9Z83_3csd3csd5testss_35test_to_decimal_result_empty_string
FN:1615,_RNvNtNtCs7xJN8od9Z83_3csd3csd5testss_37test_csd_error_display_invalid_format
FN:1632,_RNvNtNtCs7xJN8od9Z83_3csd3csd5testss_37test_csd_error_display_precision_loss
FN:1596,_RNvNtNtCs7xJN8od9Z83_3csd3csd5testss_38test_csd_builder_build_negative_places
FN:1743,_RNvNtNtCs7xJN8od9Z83_3csd3csd5testss_39test_to_decimal_fractional_invalid_char
FN:1606,_RNvNtNtCs7xJN8od9Z83_3csd3csd5testss_40test_csd_error_display_invalid_character
FN:1554,_RNvNtNtCs7xJN8od9Z83_3csd3csd5testss_41test_csd_builder_build_with_max_non_zeros
FN:1642,_RNvNtNtCs7xJN8od9Z83_3csd3csd5testss_43test_csd_error_display_consecutive_non_zero
FN:1892,_RNvNtNtCs7xJN8od9Z83_3csd3csd5testss_43test_to_decimal_result_consecutive_non_zero
FN:1573,_RNvNtNtCs7xJN8od9Z83_3csd3csd5testss_46test_csd_builder_build_zero_with_max_non_zeros
FN:1875,_RNvNtNtCs7xJN8od9Z83_3csd3csd5testss_46test_to_decimal_result_multiple_decimal_points
FN:1582,_RNvNtNtCs7xJN8od9Z83_3csd3csd5testss_54test_csd_builder_build_nonzero_with_zero_max_non_zeros
FN:1094,_RNvNtNtCs7xJN8od9Z83_3csd3csd5testss_8it_works
FN:1211,_RNvNvNtNtCs7xJN8od9Z83_3csd3csd5testss_17test_safe_decimal17test_safe_decimal
FN:1169,_RNvNvNtNtCs7xJN8od9Z83_3csd3csd5testss_18test_csd_roundtrip18test_csd_roundtrip
FN:1246,_RNvNvNtNtCs7xJN8od9Z83_3csd3csd5testss_18test_csdnnz_limits18test_csdnnz_limits
FN:1187,_RNvNvNtNtCs7xJN8od9Z83_3csd3csd5testss_19test_safe_decimal_i19test_safe_decimal_i
FN:1180,_RNvNvNtNtCs7xJN8od9Z83_3csd3csd5testss_20test_csd_i_roundtrip20test_csd_i_roundtrip
FN:1256,_RNvNvNtNtCs7xJN8od9Z83_3csd3csd5testss_26test_power_of_two_property26test_power_of_two_property
FN:13,_RINvNtCs7xJN8od9Z83_3csd3csd18with_string_bufferNtNtCs2YhQnMI27q1_5alloc6string6StringNCNvB2_6to_csd0EB4_
FN:13,_RINvNtCs7xJN8od9Z83_3csd3csd18with_string_bufferNtNtCs2YhQnMI27q1_5alloc6string6StringNCNvB2_6to_csds_0EB4_
FN:17,_RNCINvNtCs7xJN8od9Z83_3csd3csd18with_string_bufferNtNtCs2YhQnMI27q1_5alloc6string6StringNCNvB4_6to_csd0E0B6_
FN:17,_RNCINvNtCs7xJN8od9Z83_3csd3csd18with_string_bufferNtNtCs2YhQnMI27q1_5alloc6string6StringNCNvB4_6to_csds_0E0B6_
FN:727,_RNCNvNtCs7xJN8od9Z83_3csd3csd17to_decimal_result0B5_
FN:312,_RNCNvNtCs7xJN8od9Z83_3csd3csd6to_csd0B5_
FN:331,_RNCNvNtCs7xJN8od9Z83_3csd3csd6to_csds_0B5_
FN:1136,_RNCNvNtNtCs7xJN8od9Z83_3csd3csd5testss_14test_to_csdnnz0B7_
FN:1147,_RNCNvNtNtCs7xJN8od9Z83_3csd3csd5testss_14test_to_csdnnzs_0B7_
FN:1155,_RNCNvNtNtCs7xJN8od9Z83_3csd3csd5testss_16test_to_csdnnz_i0B7_
FN:1164,_RNCNvNtNtCs7xJN8od9Z83_3csd3csd5testss_16test_to_csdnnz_is_0B7_
FN:1324,_RNCNvNtNtCs7xJN8od9Z83_3csd3csd5testss_18test_to_csdnnz_i640B7_
FN:1331,_RNCNvNtNtCs7xJN8od9Z83_3csd3csd5testss_18test_to_csdnnz_i64s_0B7_
FN:1358,_RNCNvNtNtCs7xJN8od9Z83_3csd3csd5testss_19test_to_csdnnz_i1280B7_
FN:1365,_RNCNvNtNtCs7xJN8od9Z83_3csd3csd5testss_19test_to_csdnnz_i128s_0B7_
FN:1800,_RNCNvNtNtCs7xJN8od9Z83_3csd3csd5testss_19test_to_csdnnz_safe0B7_
FN:1824,_RNCNvNtNtCs7xJN8od9Z83_3csd3csd5testss_27test_to_csdnnz_i64_explicit0B7_
FN:1837,_RNCNvNtNtCs7xJN8od9Z83_3csd3csd5testss_27test_to_csdnnz_i64_explicits0_0B7_
FN:1842,_RNCNvNtNtCs7xJN8od9Z83_3csd3csd5testss_27test_to_csdnnz_i64_explicits1_0B7_
FN:1832,_RNCNvNtNtCs7xJN8od9Z83_3csd3csd5testss_27test_to_csdnnz_i64_explicits_0B7_
FN:1851,_RNCNvNtNtCs7xJN8od9Z83_3csd3csd5testss_28test_to_csdnnz_i128_explicit0B7_
FN:1864,_RNCNvNtNtCs7xJN8od9Z83_3csd3csd5testss_28test_to_csdnnz_i128_explicits0_0B7_
FN:1869,_RNCNvNtNtCs7xJN8od9Z83_3csd3csd5testss_28test_to_csdnnz_i128_explicits1_0B7_
FN:1859,_RNCNvNtNtCs7xJN8od9Z83_3csd3csd5testss_28test_to_csdnnz_i128_explicits_0B7_
FN:1559,_RNCNvNtNtCs7xJN8od9Z83_3csd3csd5testss_41test_csd_builder_build_with_max_non_zeros0B7_
FN:1214,_RNCNvNvNtNtCs7xJN8od9Z83_3csd3csd5testss_17test_safe_decimal17test_safe_decimal0B9_
FN:1251,_RNCNvNvNtNtCs7xJN8od9Z83_3csd3csd5testss_18test_csdnnz_limits18test_csdnnz_limits0B9_
FN:1190,_RNCNvNvNtNtCs7xJN8od9Z83_3csd3csd5testss_19test_safe_decimal_i19test_safe_decimal_i0B9_
FN:1199,_RNCNvNvNtNtCs7xJN8od9Z83_3csd3csd5testss_19test_safe_decimal_i19test_safe_decimal_is_0B9_
FN:1264,_RNCNvNvNtNtCs7xJN8od9Z83_3csd3csd5testss_26test_power_of_two_property26test_power_of_two_property0B9_
FN:971,_RNvNtCs7xJN8od9Z83_3csd3csd13to_csdnnz_i64
FN:1037,_RNvNtCs7xJN8od9Z83_3csd3csd14to_csdnnz_i128
FNDA:4,_RNvMNtCs7xJN8od9Z83_3csd3csdNtB2_10CsdBuilder13max_non_zeros
FNDA:1,_RNvMNtCs7xJN8od9Z83_3csd3csdNtB2_10CsdBuilder17rounding_strategy
FNDA:11,_RNvMNtCs7xJN8od9Z83_3csd3csdNtB2_10CsdBuilder3new
FNDA:6,_RNvMNtCs7xJN8od9Z83_3csd3csdNtB2_10CsdBuilder5build
FNDA:5,_RNvMNtCs7xJN8od9Z83_3csd3csdNtB2_10CsdBuilder6places
FNDA:102,_RNvNtCs7xJN8od9Z83_3csd3csd10to_decimal
FNDA:112,_RNvNtCs7xJN8od9Z83_3csd3csd12to_decimal_i
FNDA:8,_RNvNtCs7xJN8od9Z83_3csd3csd14to_csdnnz_safe
FNDA:15,_RNvNtCs7xJN8od9Z83_3csd3csd15is_power_of_two
FNDA:170,_RNvNtCs7xJN8od9Z83_3csd3csd15to_decimal_safe
FNDA:68,_RNvNtCs7xJN8od9Z83_3csd3csd17to_decimal_i_safe
FNDA:8,_RNvNtCs7xJN8od9Z83_3csd3csd17to_decimal_result
FNDA:7,_RNvNtCs7xJN8od9Z83_3csd3csd19to_decimal_i_result
FNDA:20,_RNvNtCs7xJN8od9Z83_3csd3csd19validate_csd_format
FNDA:9,_RNvNtCs7xJN8od9Z83_3csd3csd21count_non_zero_digits
FNDA:13,_RNvNtCs7xJN8od9Z83_3csd3csd21to_decimal_fractional
FNDA:5,_RNvNtCs7xJN8od9Z83_3csd3csd21to_decimal_i64_result
FNDA:5,_RNvNtCs7xJN8od9Z83_3csd3csd22to_decimal_i128_result
FNDA:209,_RNvNtCs7xJN8od9Z83_3csd3csd23highest_power_of_two_inB3_
FNDA:169,_RNvNtCs7xJN8od9Z83_3csd3csd24to_decimal_integral_safe
FNDA:124,_RNvNtCs7xJN8od9Z83_3csd3csd26to_decimal_fractional_safe
FNDA:108,_RNvNtCs7xJN8od9Z83_3csd3csd6to_csd
FNDA:100,_RNvNtCs7xJN8od9Z83_3csd3csd8to_csd_i
FNDA:130,_RNvNtCs7xJN8od9Z83_3csd3csd9to_csdnnz
FNDA:6,_RNvXs_NtCs7xJN8od9Z83_3csd3csdNtB4_8CsdErrorNtNtCs6joXTnudZij_4core3fmt7Display3fmt
FNDA:3,_RNvNtNtCs7xJN8od9Z83_3csd3csd5tests10to_csd_i64
FNDA:3,_RNvNtNtCs7xJN8od9Z83_3csd3csd5tests11to_csd_i128
FNDA:5,_RNvNtNtCs7xJN8od9Z83_3csd3csd5tests11to_csdnnz_i
FNDA:9,_RNvNtNtCs7xJN8od9Z83_3csd3csd5tests13to_csdnnz_i64
FNDA:9,_RNvNtNtCs7xJN8od9Z83_3csd3csd5tests14to_csdnnz_i128
FNDA:5,_RNvNtNtCs7xJN8od9Z83_3csd3csd5tests14to_decimal_i64
FNDA:2,_RNvNtNtCs7xJN8od9Z83_3csd3csd5tests15to_decimal_i128
FNDA:1,_RNvNtNtCs7xJN8od9Z83_3csd3csd5testss_11test_to_csd
FNDA:1,_RNvNtNtCs7xJN8od9Z83_3csd3csd5testss_14test_to_csdnnz
FNDA:1,_RNvNtNtCs7xJN8od9Z83_3csd3csd5testss_15test_to_csd_i64
FNDA:1,_RNvNtNtCs7xJN8od9Z83_3csd3csd5testss_16test_to_csd_i128
FNDA:1,_RNvNtNtCs7xJN8od9Z83_3csd3csd5testss_16test_to_csdnnz_i
FNDA:1,_RNvNtNtCs7xJN8od9Z83_3csd3csd5testss_17test_to_decimal_i
FNDA:1,_RNvNtNtCs7xJN8od9Z83_3csd3csd5testss_18test_to_csdnnz_i64
FNDA:1,_RNvNtNtCs7xJN8od9Z83_3csd3csd5testss_19test_to_csdnnz_i128
FNDA:1,_RNvNtNtCs7xJN8od9Z83_3csd3csd5testss_19test_to_csdnnz_safe
FNDA:1,_RNvNtNtCs7xJN8od9Z83_3csd3csd5testss_19test_to_decimal_i64
FNDA:1,_RNvNtNtCs7xJN8od9Z83_3csd3csd5testss_20test_csd_builder_new
FNDA:1,_RNvNtNtCs7xJN8od9Z83_3csd3csd5testss_20test_is_power_of_two
FNDA:1,_RNvNtNtCs7xJN8od9Z83_3csd3csd5testss_22test_to_decimal_result
FNDA:1,_RNvNtNtCs7xJN8od9Z83_3csd3csd5testss_23test_csd_builder_places
FNDA:1,_RNvNtNtCs7xJN8od9Z83_3csd3csd5testss_24test_to_decimal_i_result
FNDA:1,_RNvNtNtCs7xJN8od9Z83_3csd3csd5testss_24test_to_decimal_invalid1
FNDA:1,_RNvNtNtCs7xJN8od9Z83_3csd3csd5testss_24test_to_decimal_invalid2
FNDA:1,_RNvNtNtCs7xJN8od9Z83_3csd3csd5testss_24test_validate_csd_format
FNDA:1,_RNvNtNtCs7xJN8od9Z83_3csd3csd5testss_25test_to_decimal_i_invalid
FNDA:1,_RNvNtNtCs7xJN8od9Z83_3csd3csd5testss_26test_count_non_zero_digits
FNDA:1,_RNvNtNtCs7xJN8od9Z83_3csd3csd5testss_26test_to_decimal_fractional
FNDA:1,_RNvNtNtCs7xJN8od9Z83_3csd3csd5testss_26test_to_decimal_i64_result
FNDA:1,_RNvNtNtCs7xJN8od9Z83_3csd3csd5testss_27test_to_csdnnz_i64_explicit
FNDA:1,_RNvNtNtCs7xJN8od9Z83_3csd3csd5testss_27test_to_decimal_i128_result
FNDA:1,_RNvNtNtCs7xJN8od9Z83_3csd3csd5testss_28test_highest_power_of_two_in
FNDA:1,_RNvNtNtCs7xJN8od9Z83_3csd3csd5testss_28test_to_csdnnz_i128_explicit
FNDA:1,_RNvNtNtCs7xJN8od9Z83_3csd3csd5testss_29test_csd_builder_build_simple
FNDA:1,_RNvNtNtCs7xJN8od9Z83_3csd3csd5testss_30test_csd_builder_max_non_zeros
FNDA:1,_RNvNtNtCs7xJN8od9Z83_3csd3csd5testss_31test_csd_error_display_overflow
FNDA:1,_RNvNtNtCs7xJN8od9Z83_3csd3csd5testss_33test_csd_builder_build_zero_value
FNDA:1,_RNvNtNtCs7xJN8od9Z83_3csd3csd5testss_34test_csd_builder_rounding_strategy
FNDA:1,_RNvNtNtCs7xJN8od9Z83_3csd3csd5testss_35test_csd_error_display_empty_string
FNDA:1,_RNvNtNtCs7xJN8od9Z83_3csd3csd5testss_35test_to_decimal_result_empty_string
FNDA:1,_RNvNtNtCs7xJN8od9Z83_3csd3csd5testss_37test_csd_error_display_invalid_format
FNDA:1,_RNvNtNtCs7xJN8od9Z83_3csd3csd5testss_37test_csd_error_display_precision_loss
FNDA:1,_RNvNtNtCs7xJN8od9Z83_3csd3csd5testss_38test_csd_builder_build_negative_places
FNDA:1,_RNvNtNtCs7xJN8od9Z83_3csd3csd5testss_39test_to_decimal_fractional_invalid_char
FNDA:1,_RNvNtNtCs7xJN8od9Z83_3csd3csd5testss_40test_csd_error_display_invalid_character
FNDA:1,_RNvNtNtCs7xJN8od9Z83_3csd3csd5testss_41test_csd_builder_build_with_max_non_zeros
FNDA:1,_RNvNtNtCs7xJN8od9Z83_3csd3csd5testss_43test_csd_error_display_consecutive_non_zero
FNDA:1,_RNvNtNtCs7xJN8od9Z83_3csd3csd5testss_43test_to_decimal_result_consecutive_non_zero
FNDA:1,_RNvNtNtCs7xJN8od9Z83_3csd3csd5testss_46test_csd_builder_build_zero_with_max_non_zeros
FNDA:1,_RNvNtNtCs7xJN8od9Z83_3csd3csd5testss_46test_to_decimal_result_multiple_decimal_points
FNDA:1,_RNvNtNtCs7xJN8od9Z83_3csd3csd5testss_54test_csd_builder_build_nonzero_with_zero_max_non_zeros
FNDA:1,_RNvNtNtCs7xJN8od9Z83_3csd3csd5testss_8it_works
FNDA:100,_RNvNvNtNtCs7xJN8od9Z83_3csd3csd5testss_17test_safe_decimal17test_safe_decimal
FNDA:100,_RNvNvNtNtCs7xJN8od9Z83_3csd3csd5testss_18test_csd_roundtrip18test_csd_roundtrip
FNDA:100,_RNvNvNtNtCs7xJN8od9Z83_3csd3csd5testss_18test_csdnnz_limits18test_csdnnz_limits
FNDA:100,_RNvNvNtNtCs7xJN8od9Z83_3csd3csd5testss_19test_safe_decimal_i19test_safe_decimal_i
FNDA:100,_RNvNvNtNtCs7xJN8od9Z83_3csd3csd5testss_20test_csd_i_roundtrip20test_csd_i_roundtrip
FNDA:100,_RNvNvNtNtCs7xJN8od9Z83_3csd3csd5testss_26test_power_of_two_property26test_power_of_two_property
FNDA:12,_RINvNtCs7xJN8od9Z83_3csd3csd18with_string_bufferNtNtCs2YhQnMI27q1_5alloc6string6StringNCNvB2_6to_csd0EB4_
FNDA:96,_RINvNtCs7xJN8od9Z83_3csd3csd18with_string_bufferNtNtCs2YhQnMI27q1_5alloc6string6StringNCNvB2_6to_csds_0EB4_
FNDA:12,_RNCINvNtCs7xJN8od9Z83_3csd3csd18with_string_bufferNtNtCs2YhQnMI27q1_5alloc6string6StringNCNvB4_6to_csd0E0B6_
FNDA:96,_RNCINvNtCs7xJN8od9Z83_3csd3csd18with_string_bufferNtNtCs2YhQnMI27q1_5alloc6string6StringNCNvB4_6to_csds_0E0B6_
FNDA:3,_RNCNvNtCs7xJN8od9Z83_3csd3csd17to_decimal_result0B5_
FNDA:12,_RNCNvNtCs7xJN8od9Z83_3csd3csd6to_csd0B5_
FNDA:96,_RNCNvNtCs7xJN8od9Z83_3csd3csd6to_csds_0B5_
FNDA:8,_RNCNvNtNtCs7xJN8od9Z83_3csd3csd5testss_14test_to_csdnnz0B7_
FNDA:6,_RNCNvNtNtCs7xJN8od9Z83_3csd3csd5testss_14test_to_csdnnzs_0B7_
FNDA:6,_RNCNvNtNtCs7xJN8od9Z83_3csd3csd5testss_16test_to_csdnnz_i0B7_
FNDA:8,_RNCNvNtNtCs7xJN8od9Z83_3csd3csd5testss_16test_to_csdnnz_is_0B7_
FNDA:6,_RNCNvNtNtCs7xJN8od9Z83_3csd3csd5testss_18test_to_csdnnz_i640B7_
FNDA:8,_RNCNvNtNtCs7xJN8od9Z83_3csd3csd5testss_18test_to_csdnnz_i64s_0B7_
FNDA:6,_RNCNvNtNtCs7xJN8od9Z83_3csd3csd5testss_19test_to_csdnnz_i1280B7_
FNDA:8,_RNCNvNtNtCs7xJN8od9Z83_3csd3csd5testss_19test_to_csdnnz_i128s_0B7_
FNDA:8,_RNCNvNtNtCs7xJN8od9Z83_3csd3csd5testss_19test_to_csdnnz_safe0B7_
FNDA:6,_RNCNvNtNtCs7xJN8od9Z83_3csd3csd5testss_27test_to_csdnnz_i64_explicit0B7_
FNDA:6,_RNCNvNtNtCs7xJN8od9Z83_3csd3csd5testss_27test_to_csdnnz_i64_explicits0_0B7_
FNDA:21,_RNCNvNtNtCs7xJN8od9Z83_3csd3csd5testss_27test_to_csdnnz_i64_explicits1_0B7_
FNDA:8,_RNCNvNtNtCs7xJN8od9Z83_3csd3csd5testss_27test_to_csdnnz_i64_explicits_0B7_
FNDA:6,_RNCNvNtNtCs7xJN8od9Z83_3csd3csd5testss_28test_to_csdnnz_i128_explicit0B7_
FNDA:6,_RNCNvNtNtCs7xJN8od9Z83_3csd3csd5testss_28test_to_csdnnz_i128_explicits0_0B7_
FNDA:41,_RNCNvNtNtCs7xJN8od9Z83_3csd3csd5testss_28test_to_csdnnz_i128_explicits1_0B7_
FNDA:8,_RNCNvNtNtCs7xJN8od9Z83_3csd3csd5testss_28test_to_csdnnz_i128_explicits_0B7_
FNDA:8,_RNCNvNtNtCs7xJN8od9Z83_3csd3csd5testss_41test_csd_builder_build_with_max_non_zeros0B7_
FNDA:4720,_RNCNvNvNtNtCs7xJN8od9Z83_3csd3csd5testss_17test_safe_decimal17test_safe_decimal0B9_
FNDA:2765,_RNCNvNvNtNtCs7xJN8od9Z83_3csd3csd5testss_18test_csdnnz_limits18test_csdnnz_limits0B9_
FNDA:5023,_RNCNvNvNtNtCs7xJN8od9Z83_3csd3csd5testss_19test_safe_decimal_i19test_safe_decimal_i0B9_
FNDA:36,_RNCNvNvNtNtCs7xJN8od9Z83_3csd3csd5testss_19test_safe_decimal_i19test_safe_decimal_is_0B9_
FNDA:46,_RNCNvNvNtNtCs7xJN8od9Z83_3csd3csd5testss_26test_power_of_two_property26test_power_of_two_property0B9_
FNDA:0,_RNvNtCs7xJN8od9Z83_3csd3csd13to_csdnnz_i64
FNDA:0,_RNvNtCs7xJN8od9Z83_3csd3csd14to_csdnnz_i128
FNF:113
FNH:111
DA:13,108
DA:14,108
DA:15,108
DA:17,108
DA:18,108
DA:19,108
DA:20,108
DA:21,108
DA:22,108
DA:52,11
DA:53,11
DA:54,11
DA:55,11
DA:56,11
DA:57,11
DA:58,11
DA:60,5
DA:61,5
DA:62,5
DA:63,5
DA:65,4
DA:66,4
DA:67,4
DA:68,4
DA:70,1
DA:71,1
DA:72,1
DA:73,0
DA:74,0
DA:76,1
DA:78,6
DA:79,6
DA:81,6
DA:82,3
DA:83,1
DA:84,1
DA:85,1
DA:86,2
DA:87,2
DA:89,3
DA:90,0
DA:91,0
DA:92,0
DA:93,3
DA:94,3
DA:96,6
DA:117,6
DA:118,6
DA:119,1
DA:120,1
DA:121,1
DA:122,1
DA:126,1
DA:127,1
DA:128,1
DA:130,1
DA:131,1
DA:133,1
DA:134,1
DA:136,1
DA:138,6
DA:195,209
DA:196,209
DA:197,209
DA:198,209
DA:199,209
DA:200,209
DA:201,209
DA:202,209
DA:205,15
DA:206,15
DA:207,15
DA:210,9
DA:211,9
DA:212,9
DA:213,9
DA:215,46
DA:216,37
DA:217,15
DA:218,22
DA:220,37
DA:223,9
DA:224,9
DA:227,20
DA:228,20
DA:229,1
DA:230,19
DA:232,19
DA:233,19
DA:234,19
DA:236,56
DA:237,48
DA:238,43
DA:239,5
DA:242,43
DA:243,43
DA:244,6
DA:245,37
DA:247,37
DA:248,37
DA:251,8
DA:252,20
DA:310,108
DA:311,108
DA:312,12
DA:313,12
DA:314,12
DA:315,24
DA:316,24
DA:317,24
DA:318,12
DA:319,12
DA:320,96
DA:322,96
DA:323,96
DA:324,1
DA:327,95
DA:328,95
DA:331,96
DA:332,96
DA:334,96
DA:335,1
DA:336,1
DA:339,95
DA:341,95
DA:344,2653
DA:345,2557
DA:346,2557
DA:347,2557
DA:348,2557
DA:349,446
DA:350,446
DA:351,2111
DA:352,419
DA:353,419
DA:354,1692
DA:355,1692
DA:356,1692
DA:359,96
DA:361,96
DA:362,706
DA:363,610
DA:364,610
DA:365,610
DA:366,55
DA:367,55
DA:368,555
DA:369,51
DA:370,51
DA:371,504
DA:372,504
DA:373,504
DA:374,610
DA:377,96
DA:378,96
DA:379,108
DA:434,100
DA:435,100
DA:436,2
DA:437,98
DA:441,98
DA:443,98
DA:444,98
DA:445,98
DA:447,2931
DA:448,2833
DA:449,2833
DA:450,2833
DA:451,504
DA:452,504
DA:453,2329
DA:454,528
DA:455,528
DA:456,1801
DA:457,1801
DA:458,1801
DA:459,2833
DA:462,98
DA:463,100
DA:516,68
DA:517,68
DA:518,0
DA:519,68
DA:521,68
DA:522,68
DA:524,117
DA:525,117
DA:527,117
DA:528,15
DA:529,102
DA:531,102
DA:532,47
DA:533,26
DA:534,29
DA:535,0
DA:538,102
DA:541,53
DA:542,68
DA:546,112
DA:547,112
DA:548,112
DA:549,112
DA:551,2999
DA:552,2888
DA:553,1839
DA:554,512
DA:555,536
DA:556,1
DA:558,2887
DA:561,111
DA:562,111
DA:568,169
DA:569,169
DA:570,169
DA:572,2770
DA:573,2770
DA:575,2770
DA:576,13
DA:577,2757
DA:579,2757
DA:580,1721
DA:581,474
DA:582,437
DA:584,124
DA:586,1
DA:589,2632
DA:592,31
DA:593,169
DA:596,13
DA:597,13
DA:598,13
DA:600,36
DA:601,36
DA:602,15
DA:603,14
DA:604,6
DA:605,1
DA:607,35
DA:610,12
DA:611,12
DA:613,124
DA:614,124
DA:615,11
DA:616,113
DA:618,113
DA:619,113
DA:621,642
DA:622,642
DA:623,522
DA:624,58
DA:625,58
DA:626,4
DA:628,638
DA:630,109
DA:631,124
DA:683,102
DA:684,102
DA:685,102
DA:687,170
DA:688,170
DA:689,1
DA:690,169
DA:693,169
DA:695,155
DA:696,31
DA:697,124
DA:700,124
DA:701,120
DA:702,170
DA:720,8
DA:722,22
DA:723,22
DA:724,3
DA:725,19
DA:727,19
DA:728,1
DA:729,1
DA:730,1
DA:731,18
DA:734,4
DA:735,8
DA:753,7
DA:755,23
DA:756,23
DA:757,4
DA:758,19
DA:761,3
DA:762,7
DA:771,5
DA:773,21
DA:774,21
DA:775,2
DA:776,19
DA:779,3
DA:780,5
DA:789,5
DA:791,21
DA:792,21
DA:793,2
DA:794,19
DA:797,3
DA:798,5
DA:859,130
DA:860,130
DA:861,130
DA:862,19
DA:865,111
DA:866,111
DA:868,130
DA:869,130
DA:870,130
DA:873,3050
DA:874,2920
DA:875,4
DA:876,2916
DA:877,2920
DA:878,2920
DA:879,2920
DA:880,2920
DA:881,285
DA:882,285
DA:883,285
DA:884,2635
DA:885,252
DA:886,252
DA:887,252
DA:888,2383
DA:889,2383
DA:890,2383
DA:892,2920
DA:894,0
DA:895,2920
DA:898,130
DA:899,130
DA:901,8
DA:902,8
DA:903,1
DA:904,1
DA:905,1
DA:906,7
DA:908,7
DA:909,7
DA:910,5
DA:913,2
DA:914,2
DA:916,7
DA:917,7
DA:918,7
DA:920,22
DA:921,16
DA:922,4
DA:923,12
DA:924,16
DA:925,16
DA:926,16
DA:927,16
DA:928,5
DA:929,5
DA:930,5
DA:931,11
DA:932,3
DA:933,3
DA:934,3
DA:935,8
DA:936,8
DA:937,8
DA:938,16
DA:939,1
DA:940,15
DA:943,7
DA:944,8
DA:971,0
DA:972,0
DA:973,0
DA:974,0
DA:977,0
DA:979,0
DA:980,0
DA:981,0
DA:982,0
DA:984,0
DA:985,0
DA:986,0
DA:987,0
DA:988,0
DA:989,0
DA:990,0
DA:991,0
DA:992,0
DA:993,0
DA:994,0
DA:995,0
DA:996,0
DA:997,0
DA:998,0
DA:999,0
DA:1001,0
DA:1002,0
DA:1003,0
DA:1004,0
DA:1005,0
DA:1006,0
DA:1009,0
DA:1010,0
DA:1037,0
DA:1038,0
DA:1039,0
DA:1040,0
DA:1043,0
DA:1044,0
DA:1045,0
DA:1046,0
DA:1047,0
DA:1048,0
DA:1049,0
DA:1050,0
DA:1051,0
DA:1053,0
DA:1056,0
DA:1057,0
DA:1058,0
DA:1060,0
DA:1061,0
DA:1062,0
DA:1063,0
DA:1064,0
DA:1065,0
DA:1066,0
DA:1067,0
DA:1068,0
DA:1069,0
DA:1070,0
DA:1071,0
DA:1072,0
DA:1073,0
DA:1074,0
DA:1075,0
DA:1077,0
DA:1078,0
DA:1079,0
DA:1080,0
DA:1081,0
DA:1082,0
DA:1085,0
DA:1086,0
DA:1094,1
DA:1095,1
DA:1096,1
DA:1097,1
DA:1100,1
DA:1101,1
DA:1102,1
DA:1103,1
DA:1104,1
DA:1105,1
DA:1106,1
DA:1110,1
DA:1111,1
DA:1112,1
DA:1116,1
DA:1117,1
DA:1118,1
DA:1121,1
DA:1122,1
DA:1123,1
DA:1124,1
DA:1128,1
DA:1129,1
DA:1130,1
DA:1133,1
DA:1135,1
DA:1136,8
DA:1137,1
DA:1139,1
DA:1140,1
DA:1141,1
DA:1142,1
DA:1143,1
DA:1146,1
DA:1147,6
DA:1148,1
DA:1149,1
DA:1152,1
DA:1154,1
DA:1155,6
DA:1156,1
DA:1158,1
DA:1159,1
DA:1160,1
DA:1163,1
DA:1164,8
DA:1165,1
DA:1166,1
DA:1169,100
DA:1171,100
DA:1172,100
DA:1173,100
DA:1174,100
DA:1175,100
DA:1176,100
DA:1177,100
DA:1180,100
DA:1181,100
DA:1182,100
DA:1183,100
DA:1184,100
DA:1187,100
DA:1188,100
DA:1189,100
DA:1190,5023
DA:1191,100
DA:1193,100
DA:1194,32
DA:1195,68
DA:1197,68
DA:1198,53
DA:1199,36
DA:1200,36
DA:1201,31
DA:1203,5
DA:1205,36
DA:1206,0
DA:1208,100
DA:1211,100
DA:1212,100
DA:1213,100
DA:1214,4720
DA:1215,100
DA:1217,100
DA:1218,36
DA:1219,64
DA:1221,64
DA:1225,49
DA:1227,0
DA:1231,3
DA:1235,0
DA:1239,12
DA:1241,0
DA:1243,100
DA:1246,100
DA:1248,100
DA:1249,100
DA:1250,100
DA:1251,2765
DA:1252,100
DA:1253,100
DA:1256,100
DA:1257,100
DA:1258,100
DA:1259,6
DA:1262,94
DA:1263,94
DA:1264,94
DA:1266,100
DA:1292,1
DA:1293,1
DA:1294,1
DA:1295,1
DA:1296,1
DA:1297,1
DA:1298,1
DA:1299,1
DA:1300,1
DA:1304,1
DA:1306,1
DA:1307,1
DA:1308,1
DA:1309,1
DA:1310,1
DA:1311,1
DA:1314,1
DA:1315,1
DA:1316,1
DA:1317,1
DA:1318,1
DA:1321,1
DA:1323,1
DA:1324,6
DA:1325,1
DA:1327,1
DA:1330,1
DA:1331,8
DA:1332,1
DA:1333,1
DA:1345,1
DA:1347,1
DA:1348,1
DA:1349,1
DA:1350,1
DA:1351,1
DA:1352,1
DA:1355,1
DA:1357,1
DA:1358,6
DA:1359,1
DA:1361,1
DA:1364,1
DA:1365,8
DA:1366,1
DA:1367,1
DA:1379,1
DA:1380,1
DA:1381,1
DA:1382,1
DA:1383,1
DA:1384,1
DA:1387,1
DA:1388,1
DA:1391,5
DA:1392,5
DA:1393,5
DA:1394,5
DA:1396,30
DA:1397,25
DA:1398,17
DA:1399,4
DA:1400,4
DA:1401,0
DA:1403,25
DA:1406,5
DA:1407,5
DA:1410,2
DA:1411,2
DA:1412,2
DA:1413,2
DA:1415,14
DA:1416,12
DA:1417,8
DA:1418,2
DA:1419,2
DA:1420,0
DA:1422,12
DA:1425,2
DA:1426,2
DA:1430,3
DA:1431,3
DA:1432,1
DA:1433,2
DA:1436,2
DA:1438,2
DA:1439,2
DA:1440,2
DA:1442,14
DA:1443,12
DA:1444,12
DA:1445,12
DA:1446,2
DA:1447,2
DA:1448,10
DA:1449,2
DA:1450,2
DA:1451,8
DA:1452,8
DA:1453,8
DA:1454,12
DA:1457,2
DA:1458,3
DA:1462,3
DA:1463,3
DA:1464,1
DA:1465,2
DA:1468,2
DA:1470,2
DA:1471,2
DA:1472,2
DA:1474,14
DA:1475,12
DA:1476,12
DA:1477,12
DA:1478,2
DA:1479,2
DA:1480,10
DA:1481,2
DA:1482,2
DA:1483,8
DA:1484,8
DA:1485,8
DA:1486,12
DA:1489,2
DA:1490,3
DA:1494,5
DA:1495,5
DA:1496,5
DA:1500,9
DA:1501,9
DA:1502,9
DA:1506,9
DA:1507,9
DA:1508,9
DA:1512,1
DA:1513,1
DA:1514,1
DA:1515,1
DA:1516,1
DA:1517,1
DA:1520,1
DA:1521,1
DA:1522,1
DA:1525,1
DA:1526,1
DA:1527,1
DA:1530,1
DA:1531,1
DA:1532,1
DA:1533,1
DA:1536,1
DA:1537,1
DA:1538,1
DA:1540,1
DA:1541,1
DA:1544,1
DA:1545,1
DA:1546,1
DA:1547,1
DA:1548,1
DA:1550,1
DA:1551,1
DA:1554,1
DA:1555,1
DA:1556,1
DA:1557,1
DA:1558,1
DA:1559,8
DA:1560,1
DA:1561,1
DA:1564,1
DA:1565,1
DA:1566,1
DA:1567,1
DA:1568,1
DA:1569,1
DA:1570,1
DA:1573,1
DA:1574,1
DA:1575,1
DA:1576,1
DA:1577,1
DA:1578,1
DA:1579,1
DA:1582,1
DA:1583,1
DA:1584,1
DA:1585,1
DA:1586,1
DA:1587,1
DA:1588,1
DA:1589,1
DA:1590,1
DA:1591,1
DA:1593,1
DA:1596,1
DA:1597,1
DA:1598,1
DA:1599,1
DA:1601,1
DA:1602,1
DA:1606,1
DA:1607,1
DA:1608,1
DA:1609,1
DA:1612,1
DA:1615,1
DA:1616,1
DA:1617,1
DA:1618,1
DA:1621,1
DA:1622,1
DA:1623,1
DA:1624,1
DA:1625,1
DA:1626,1
DA:1627,1
DA:1628,1
DA:1629,1
DA:1632,1
DA:1633,1
DA:1634,1
DA:1635,1
DA:1636,1
DA:1637,1
DA:1638,1
DA:1639,1
DA:1642,1
DA:1643,1
DA:1644,1
DA:1645,1
DA:1648,1
DA:1651,1
DA:1652,1
DA:1653,1
DA:1654,1
DA:1658,1
DA:1659,1
DA:1660,1
DA:1661,1
DA:1662,1
DA:1663,1
DA:1664,1
DA:1665,1
DA:1667,1
DA:1668,1
DA:1669,1
DA:1670,1
DA:1671,1
DA:1672,1
DA:1673,1
DA:1674,1
DA:1675,1
DA:1679,1
DA:1680,1
DA:1681,1
DA:1682,1
DA:1683,1
DA:1684,1
DA:1685,1
DA:1686,1
DA:1687,1
DA:1688,1
DA:1689,1
DA:1693,1
DA:1695,1
DA:1696,1
DA:1697,1
DA:1698,1
DA:1699,1
DA:1700,1
DA:1701,1
DA:1702,1
DA:1705,1
DA:1708,1
DA:1709,1
DA:1710,1
DA:1711,1
DA:1712,1
DA:1713,1
DA:1716,1
DA:1717,1
DA:1718,1
DA:1719,1
DA:1720,1
DA:1721,1
DA:1725,1
DA:1726,1
DA:1727,1
DA:1728,1
DA:1729,1
DA:1730,1
DA:1731,1
DA:1732,1
DA:1733,1
DA:1734,1
DA:1735,1
DA:1736,1
DA:1738,1
DA:1739,1
DA:1743,1
DA:1744,1
DA:1745,1
DA:1749,1
DA:1750,1
DA:1751,1
DA:1752,1
DA:1755,1
DA:1756,1
DA:1757,1
DA:1761,1
DA:1762,1
DA:1763,1
DA:1767,1
DA:1768,1
DA:1769,1
DA:1770,1
DA:1773,1
DA:1774,1
DA:1775,1
DA:1778,1
DA:1782,1
DA:1783,1
DA:1784,1
DA:1785,1
DA:1788,1
DA:1789,1
DA:1790,1
DA:1793,1
DA:1797,1
DA:1799,1
DA:1800,8
DA:1801,1
DA:1803,1
DA:1804,1
DA:1805,1
DA:1806,1
DA:1809,1
DA:1810,1
DA:1811,1
DA:1812,1
DA:1813,1
DA:1814,1
DA:1815,1
DA:1817,1
DA:1821,1
DA:1823,1
DA:1824,6
DA:1825,1
DA:1827,1
DA:1828,1
DA:1831,1
DA:1832,8
DA:1833,1
DA:1836,1
DA:1837,6
DA:1838,1
DA:1841,1
DA:1842,21
DA:1843,1
DA:1844,1
DA:1848,1
DA:1850,1
DA:1851,6
DA:1852,1
DA:1854,1
DA:1855,1
DA:1858,1
DA:1859,8
DA:1860,1
DA:1863,1
DA:1864,6
DA:1865,1
DA:1868,1
DA:1869,41
DA:1870,1
DA:1871,1
DA:1875,1
DA:1876,1
DA:1877,1
DA:1880,1
DA:1881,1
DA:1882,1
DA:1885,1
DA:1886,1
DA:1887,1
DA:1888,1
DA:1889,1
DA:1892,1
DA:1896,1
DA:1897,1
DA:1898,1
BRF:0
BRH:0
LF:974
LH:886
end_of_record
SF:D:\github\rs\csd-rs\src\csd_multiplier.rs
FN:226,_RNvNtNtCs7xJN8od9Z83_3csd14csd_multiplier5testss_14test_valid_csd
FN:240,_RNvNtNtCs7xJN8od9Z83_3csd14csd_multiplier5testss_20test_length_mismatch
FN:233,_RNvNtNtCs7xJN8od9Z83_3csd14csd_multiplier5testss_22test_invalid_csd_chars
FN:247,_RNvNtNtCs7xJN8od9Z83_3csd14csd_multiplier5testss_23test_verilog_generation
FN:100,_RNCNvMNtCs7xJN8od9Z83_3csd14csd_multiplierNtB4_13CsdMultiplier13decimal_value0B6_
FN:166,_RNCNvMNtCs7xJN8od9Z83_3csd14csd_multiplierNtB4_13CsdMultiplier14generate_wiress_0B6_
FN:82,_RNCNvMNtCs7xJN8od9Z83_3csd14csd_multiplierNtB4_13CsdMultiplier3new0B6_
FN:146,_RNCNvMNtCs7xJN8od9Z83_3csd14csd_multiplierNtB4_13CsdMultiplier9get_terms0B6_
FN:99,_RNvMNtCs7xJN8od9Z83_3csd14csd_multiplierNtB2_13CsdMultiplier13decimal_value
FN:158,_RNvMNtCs7xJN8od9Z83_3csd14csd_multiplierNtB2_13CsdMultiplier14generate_wires
FN:121,_RNvMNtCs7xJN8od9Z83_3csd14csd_multiplierNtB2_13CsdMultiplier15generate_header
FN:192,_RNvMNtCs7xJN8od9Z83_3csd14csd_multiplierNtB2_13CsdMultiplier15generate_result
FN:112,_RNvMNtCs7xJN8od9Z83_3csd14csd_multiplierNtB2_13CsdMultiplier16generate_verilog
FN:80,_RNvMNtCs7xJN8od9Z83_3csd14csd_multiplierNtB2_13CsdMultiplier3new
FN:142,_RNvMNtCs7xJN8od9Z83_3csd14csd_multiplierNtB2_13CsdMultiplier9get_terms
FNDA:1,_RNvNtNtCs7xJN8od9Z83_3csd14csd_multiplier5testss_14test_valid_csd
FNDA:1,_RNvNtNtCs7xJN8od9Z83_3csd14csd_multiplier5testss_20test_length_mismatch
FNDA:1,_RNvNtNtCs7xJN8od9Z83_3csd14csd_multiplier5testss_22test_invalid_csd_chars
FNDA:1,_RNvNtNtCs7xJN8od9Z83_3csd14csd_multiplier5testss_23test_verilog_generation
FNDA:12,_RNCNvMNtCs7xJN8od9Z83_3csd14csd_multiplierNtB4_13CsdMultiplier13decimal_value0B6_
FNDA:1,_RNCNvMNtCs7xJN8od9Z83_3csd14csd_multiplierNtB4_13CsdMultiplier14generate_wiress_0B6_
FNDA:24,_RNCNvMNtCs7xJN8od9Z83_3csd14csd_multiplierNtB4_13CsdMultiplier3new0B6_
FNDA:6,_RNCNvMNtCs7xJN8od9Z83_3csd14csd_multiplierNtB4_13CsdMultiplier9get_terms0B6_
FNDA:2,_RNvMNtCs7xJN8od9Z83_3csd14csd_multiplierNtB2_13CsdMultiplier13decimal_value
FNDA:1,_RNvMNtCs7xJN8od9Z83_3csd14csd_multiplierNtB2_13CsdMultiplier14generate_wires
FNDA:1,_RNvMNtCs7xJN8od9Z83_3csd14csd_multiplierNtB2_13CsdMultiplier15generate_header
FNDA:1,_RNvMNtCs7xJN8od9Z83_3csd14csd_multiplierNtB2_13CsdMultiplier15generate_result
FNDA:1,_RNvMNtCs7xJN8od9Z83_3csd14csd_multiplierNtB2_13CsdMultiplier16generate_verilog
FNDA:4,_RNvMNtCs7xJN8od9Z83_3csd14csd_multiplierNtB2_13CsdMultiplier3new
FNDA:2,_RNvMNtCs7xJN8od9Z83_3csd14csd_multiplierNtB2_13CsdMultiplier9get_terms
FNF:15
FNH:15
DA:80,4
DA:82,24
DA:83,1
DA:84,3
DA:87,3
DA:88,1
DA:89,2
DA:91,2
DA:92,2
DA:93,2
DA:94,2
DA:95,2
DA:96,4
DA:99,2
DA:100,12
DA:101,12
DA:102,12
DA:103,4
DA:104,2
DA:105,6
DA:106,0
DA:108,12
DA:109,2
DA:112,1
DA:113,1
DA:114,1
DA:115,1
DA:116,1
DA:117,1
DA:118,1
DA:119,1
DA:121,1
DA:122,1
DA:123,1
DA:124,1
DA:126,1
DA:128,1
DA:130,1
DA:131,1
DA:132,1
DA:133,1
DA:134,1
DA:135,1
DA:136,1
DA:137,1
DA:139,1
DA:140,1
DA:142,2
DA:143,2
DA:144,2
DA:145,2
DA:146,6
DA:147,6
DA:148,6
DA:149,2
DA:150,2
DA:151,2
DA:152,0
DA:154,6
DA:155,2
DA:156,2
DA:158,1
DA:159,1
DA:160,1
DA:161,0
DA:162,1
DA:164,1
DA:165,1
DA:166,1
DA:167,1
DA:168,1
DA:171,1
DA:172,1
DA:173,1
DA:175,1
DA:177,3
DA:178,2
DA:179,2
DA:180,2
DA:181,2
DA:182,2
DA:183,2
DA:184,2
DA:185,2
DA:186,2
DA:187,2
DA:188,2
DA:189,2
DA:190,1
DA:192,1
DA:193,1
DA:194,1
DA:196,1
DA:197,0
DA:198,0
DA:199,1
DA:200,1
DA:202,1
DA:203,1
DA:204,1
DA:206,1
DA:208,1
DA:226,1
DA:227,1
DA:228,1
DA:229,1
DA:230,1
DA:233,1
DA:234,1
DA:235,1
DA:236,1
DA:237,1
DA:240,1
DA:241,1
DA:242,1
DA:243,1
DA:244,1
DA:247,1
DA:248,1
DA:249,1
DA:250,1
DA:251,1
DA:252,1
DA:253,1
DA:254,1
DA:255,1
DA:256,1
DA:257,1
DA:258,1
DA:259,1
DA:260,1
DA:261,1
DA:262,1
DA:263,1
DA:264,1
DA:265,1
DA:266,1
DA:267,1
BRF:0
BRH:0
LF:142
LH:137
end_of_record
SF:D:\github\rs\csd-rs\src\lcsre.rs
FN:30,_RNvNtCs7xJN8od9Z83_3csd5lcsre26longest_repeated_substring
FN:72,_RNvNtNtCs7xJN8od9Z83_3csd5lcsre5testss_10test_lcsre
FNDA:6,_RNvNtCs7xJN8od9Z83_3csd5lcsre26longest_repeated_substring
FNDA:1,_RNvNtNtCs7xJN8od9Z83_3csd5lcsre5testss_10test_lcsre
FNF:2
FNH:2
DA:30,6
DA:31,6
DA:32,6
DA:33,6
DA:34,6
DA:36,6
DA:39,6
DA:40,39
DA:41,168
DA:44,168
DA:45,44
DA:48,44
DA:49,13
DA:50,13
DA:51,31
DA:52,124
DA:53,124
DA:54,124
DA:59,6
DA:61,4
DA:63,2
DA:65,6
DA:72,1
DA:73,1
DA:74,1
DA:75,1
DA:76,1
DA:77,1
DA:78,1
DA:79,1
DA:80,1
DA:81,1
DA:82,1
DA:83,1
DA:84,1
DA:85,1
DA:86,1
DA:87,1
DA:88,1
DA:89,1
DA:90,1
DA:91,1
BRF:0
BRH:0
LF:42
LH:42
end_of_record
SF:D:\github\rs\csd-rs\src\main.rs
FN:15,_RNvCsg0vkYsFIiCk_6csd_rs4main
FNDA:0,_RNvCsg0vkYsFIiCk_6csd_rs4main
FNF:1
FNH:0
DA:15,0
DA:16,0
DA:18,0
DA:19,0
DA:20,0
DA:21,0
DA:22,0
DA:23,0
DA:24,0
DA:25,0
DA:26,0
DA:27,0
DA:28,0
DA:29,0
DA:31,0
DA:32,0
DA:33,0
DA:34,0
DA:35,0
DA:36,0
DA:37,0
DA:38,0
DA:39,0
DA:40,0
DA:41,0
DA:44,0
DA:45,0
DA:47,0
DA:49,0
DA:50,0
DA:52,0
DA:53,0
DA:54,0
DA:55,0
DA:56,0
DA:57,0
DA:58,0
DA:59,0
DA:60,0
DA:61,0
DA:64,0
DA:65,0
DA:67,0
DA:69,0
DA:70,0
DA:72,0
DA:73,0
DA:74,0
DA:75,0
DA:76,0
DA:77,0
DA:78,0
DA:80,0
DA:81,0
DA:82,0
DA:84,0
BRF:0
BRH:0
LF:56
LH:0
end_of_record